; Function Attrs: nounwind uwtable
define hidden range(i32 0, 2) i32 @VP8LBitWriterClone(ptr noundef readonly captures(none) %0, ptr noundef captures(none) initializes((40, 44)) %1) local_unnamed_addr #0 {
  %3 = getelementptr inbounds nuw i8, ptr %0, i64 24
  %4 = load ptr, ptr %3, align 8, !tbaa !25
  %5 = getelementptr inbounds nuw i8, ptr %0, i64 16
  %6 = load ptr, ptr %5, align 8, !tbaa !24
  %7 = ptrtoint ptr %4 to i64
  %8 = ptrtoint ptr %6 to i64
  %9 = sub i64 %7, %8
  %10 = getelementptr inbounds nuw i8, ptr %1, i64 32
  %11 = load ptr, ptr %10, align 8, !tbaa !26
  %12 = getelementptr inbounds nuw i8, ptr %1, i64 16
  %13 = load ptr, ptr %12, align 8, !tbaa !24
  %14 = ptrtoint ptr %11 to i64
  %15 = ptrtoint ptr %13 to i64
  %16 = sub i64 %14, %15
  %17 = getelementptr inbounds nuw i8, ptr %1, i64 24
  %18 = load ptr, ptr %17, align 8, !tbaa !25
  %19 = ptrtoint ptr %18 to i64
  %20 = sub i64 %19, %15
  %21 = add i64 %20, %9
  %.not.i = icmp eq ptr %11, %13
  %.not40.i = icmp ugt i64 %21, %16
  %or.cond.i = select i1 %.not.i, i1 true, i1 %.not40.i
  br i1 %or.cond.i, label %22, label %37

22:                                               ; preds = %2
  %23 = mul i64 %16, 3
  %24 = lshr i64 %23, 1
  %spec.select.i = tail call i64 @llvm.umax.i64(i64 %24, i64 %21)
  %25 = and i64 %spec.select.i, -1024
  %26 = add i64 %25, 1024
  %27 = tail call ptr @WebPSafeMalloc(i64 noundef 1, i64 noundef %26) #7
  %28 = icmp eq ptr %27, null
  br i1 %28, label %VP8LBitWriterResize.exit, label %29

29:                                               ; preds = %22
  %.not41.i = icmp eq ptr %18, %13
  br i1 %.not41.i, label %32, label %30

30:                                               ; preds = %29
  %31 = load ptr, ptr %12, align 8, !tbaa !24
  tail call void @llvm.memcpy.p0.p0.i64(ptr nonnull align 1 %27, ptr align 1 %31, i64 %20, i1 false)
  br label %32

32:                                               ; preds = %30, %29
  %33 = load ptr, ptr %12, align 8, !tbaa !24
  tail call void @WebPSafeFree(ptr noundef %33) #7
  store ptr %27, ptr %12, align 8, !tbaa !24
  %34 = getelementptr inbounds nuw i8, ptr %27, i64 %20
  store ptr %34, ptr %17, align 8, !tbaa !25
  %35 = getelementptr inbounds nuw i8, ptr %27, i64 %26
  store ptr %35, ptr %10, align 8, !tbaa !26
  %.pre = load ptr, ptr %5, align 8, !tbaa !24
  br label %37

VP8LBitWriterResize.exit:                         ; preds = %22
  %36 = getelementptr inbounds nuw i8, ptr %1, i64 40
  store i32 1, ptr %36, align 8, !tbaa !22
  br label %49

37:                                               ; preds = %32, %2
  %38 = phi ptr [ %.pre, %32 ], [ %6, %2 ]
  %39 = phi ptr [ %27, %32 ], [ %13, %2 ]
  tail call void @llvm.memcpy.p0.p0.i64(ptr align 1 %39, ptr align 1 %38, i64 %9, i1 false)
  %40 = load i64, ptr %0, align 8, !tbaa !27
  store i64 %40, ptr %1, align 8, !tbaa !27
  %41 = getelementptr inbounds nuw i8, ptr %0, i64 8
  %42 = load i32, ptr %41, align 8, !tbaa !28
  %43 = getelementptr inbounds nuw i8, ptr %1, i64 8
  store i32 %42, ptr %43, align 8, !tbaa !28
  %44 = getelementptr inbounds nuw i8, ptr %0, i64 40
  %45 = load i32, ptr %44, align 8, !tbaa !22
  %46 = getelementptr inbounds nuw i8, ptr %1, i64 40
  store i32 %45, ptr %46, align 8, !tbaa !22
  %47 = load ptr, ptr %12, align 8, !tbaa !24
  %48 = getelementptr inbounds nuw i8, ptr %47, i64 %9
  store ptr %48, ptr %17, align 8, !tbaa !25
  br label %49

49:                                               ; preds = %VP8LBitWriterResize.exit, %37
  %.0 = phi i32 [ 1, %37 ], [ 0, %VP8LBitWriterResize.exit ]
  ret i32 %.0
}